; Function Attrs: mustprogress nofree norecurse nosync nounwind willreturn memory(read, argmem: readwrite, inaccessiblemem: none) uwtable
define ptr @Hop_ObjRecognizeMux(ptr noundef readonly captures(none) %0, ptr noundef writeonly captures(none) %1, ptr noundef writeonly captures(none) %2) local_unnamed_addr #5 {
  %4 = getelementptr i8, ptr %0, i64 16
  %.val73 = load ptr, ptr %4, align 8, !tbaa !29
  %5 = ptrtoint ptr %.val73 to i64
  %6 = and i64 %5, -2
  %7 = inttoptr i64 %6 to ptr
  %8 = getelementptr i8, ptr %0, i64 24
  %.val78 = load ptr, ptr %8, align 8, !tbaa !30
  %9 = ptrtoint ptr %.val78 to i64
  %10 = and i64 %9, -2
  %11 = inttoptr i64 %10 to ptr
  %12 = getelementptr i8, ptr %7, i64 24
  %.val77 = load ptr, ptr %12, align 8, !tbaa !30
  %13 = ptrtoint ptr %.val77 to i64
  %14 = and i64 %13, -2
  %15 = getelementptr i8, ptr %11, i64 24
  %.val76 = load ptr, ptr %15, align 8, !tbaa !30
  %16 = ptrtoint ptr %.val76 to i64
  %17 = and i64 %16, -2
  %18 = icmp eq i64 %14, %17
  br i1 %18, label %19, label %43

19:                                               ; preds = %3
  %20 = trunc i64 %13 to i32
  %21 = and i32 %20, 1
  %22 = trunc i64 %16 to i32
  %23 = and i32 %22, 1
  %.not = icmp eq i32 %21, %23
  br i1 %.not, label %43, label %24

24:                                               ; preds = %19
  %.not69 = icmp eq i32 %21, 0
  br i1 %.not69, label %34, label %25

25:                                               ; preds = %24
  %26 = getelementptr i8, ptr %11, i64 16
  %.val90 = load ptr, ptr %26, align 8, !tbaa !29
  %27 = ptrtoint ptr %.val90 to i64
  %28 = xor i64 %27, 1
  %29 = inttoptr i64 %28 to ptr
  store ptr %29, ptr %1, align 8, !tbaa !27
  %30 = getelementptr i8, ptr %7, i64 16
  %.val89 = load ptr, ptr %30, align 8, !tbaa !29
  %31 = ptrtoint ptr %.val89 to i64
  %32 = xor i64 %31, 1
  %33 = inttoptr i64 %32 to ptr
  store ptr %33, ptr %2, align 8, !tbaa !27
  %.val102 = load ptr, ptr %15, align 8, !tbaa !30
  br label %109

34:                                               ; preds = %24
  %35 = getelementptr i8, ptr %7, i64 16
  %.val88 = load ptr, ptr %35, align 8, !tbaa !29
  %36 = ptrtoint ptr %.val88 to i64
  %37 = xor i64 %36, 1
  %38 = inttoptr i64 %37 to ptr
  store ptr %38, ptr %1, align 8, !tbaa !27
  %39 = getelementptr i8, ptr %11, i64 16
  %.val87 = load ptr, ptr %39, align 8, !tbaa !29
  %40 = ptrtoint ptr %.val87 to i64
  %41 = xor i64 %40, 1
  %42 = inttoptr i64 %41 to ptr
  store ptr %42, ptr %2, align 8, !tbaa !27
  %.val101 = load ptr, ptr %12, align 8, !tbaa !30
  br label %109

43:                                               ; preds = %19, %3
  %44 = getelementptr i8, ptr %7, i64 16
  %.val72 = load ptr, ptr %44, align 8, !tbaa !29
  %45 = ptrtoint ptr %.val72 to i64
  %46 = and i64 %45, -2
  %47 = getelementptr i8, ptr %11, i64 16
  %.val71 = load ptr, ptr %47, align 8, !tbaa !29
  %48 = ptrtoint ptr %.val71 to i64
  %49 = and i64 %48, -2
  %50 = icmp eq i64 %46, %49
  br i1 %50, label %51, label %69

51:                                               ; preds = %43
  %52 = trunc i64 %45 to i32
  %53 = and i32 %52, 1
  %54 = trunc i64 %48 to i32
  %55 = and i32 %54, 1
  %.not63 = icmp eq i32 %53, %55
  br i1 %.not63, label %69, label %56

56:                                               ; preds = %51
  %.not68 = icmp eq i32 %53, 0
  br i1 %.not68, label %63, label %57

57:                                               ; preds = %56
  %58 = xor i64 %16, 1
  %59 = inttoptr i64 %58 to ptr
  store ptr %59, ptr %1, align 8, !tbaa !27
  %.val99 = load ptr, ptr %12, align 8, !tbaa !30
  %60 = ptrtoint ptr %.val99 to i64
  %61 = xor i64 %60, 1
  %62 = inttoptr i64 %61 to ptr
  store ptr %62, ptr %2, align 8, !tbaa !27
  %.val86 = load ptr, ptr %47, align 8, !tbaa !29
  br label %109

63:                                               ; preds = %56
  %64 = xor i64 %13, 1
  %65 = inttoptr i64 %64 to ptr
  store ptr %65, ptr %1, align 8, !tbaa !27
  %.val97 = load ptr, ptr %15, align 8, !tbaa !30
  %66 = ptrtoint ptr %.val97 to i64
  %67 = xor i64 %66, 1
  %68 = inttoptr i64 %67 to ptr
  store ptr %68, ptr %2, align 8, !tbaa !27
  %.val85 = load ptr, ptr %44, align 8, !tbaa !29
  br label %109

69:                                               ; preds = %51, %43
  %70 = icmp eq i64 %46, %17
  br i1 %70, label %71, label %89

71:                                               ; preds = %69
  %72 = trunc i64 %45 to i32
  %73 = and i32 %72, 1
  %74 = trunc i64 %16 to i32
  %75 = and i32 %74, 1
  %.not64 = icmp eq i32 %73, %75
  br i1 %.not64, label %89, label %76

76:                                               ; preds = %71
  %.not67 = icmp eq i32 %73, 0
  br i1 %.not67, label %83, label %77

77:                                               ; preds = %76
  %78 = xor i64 %48, 1
  %79 = inttoptr i64 %78 to ptr
  store ptr %79, ptr %1, align 8, !tbaa !27
  %.val96 = load ptr, ptr %12, align 8, !tbaa !30
  %80 = ptrtoint ptr %.val96 to i64
  %81 = xor i64 %80, 1
  %82 = inttoptr i64 %81 to ptr
  store ptr %82, ptr %2, align 8, !tbaa !27
  %.val95 = load ptr, ptr %15, align 8, !tbaa !30
  br label %109

83:                                               ; preds = %76
  %84 = xor i64 %13, 1
  %85 = inttoptr i64 %84 to ptr
  store ptr %85, ptr %1, align 8, !tbaa !27
  %.val83 = load ptr, ptr %47, align 8, !tbaa !29
  %86 = ptrtoint ptr %.val83 to i64
  %87 = xor i64 %86, 1
  %88 = inttoptr i64 %87 to ptr
  store ptr %88, ptr %2, align 8, !tbaa !27
  %.val82 = load ptr, ptr %44, align 8, !tbaa !29
  br label %109

89:                                               ; preds = %71, %69
  %90 = icmp eq i64 %14, %49
  br i1 %90, label %91, label %109

91:                                               ; preds = %89
  %92 = trunc i64 %13 to i32
  %93 = and i32 %92, 1
  %94 = trunc i64 %48 to i32
  %95 = and i32 %94, 1
  %.not65 = icmp eq i32 %93, %95
  br i1 %.not65, label %109, label %96

96:                                               ; preds = %91
  %.not66 = icmp eq i32 %93, 0
  br i1 %.not66, label %103, label %97

97:                                               ; preds = %96
  %98 = xor i64 %16, 1
  %99 = inttoptr i64 %98 to ptr
  store ptr %99, ptr %1, align 8, !tbaa !27
  %.val81 = load ptr, ptr %44, align 8, !tbaa !29
  %100 = ptrtoint ptr %.val81 to i64
  %101 = xor i64 %100, 1
  %102 = inttoptr i64 %101 to ptr
  store ptr %102, ptr %2, align 8, !tbaa !27
  %.val80 = load ptr, ptr %47, align 8, !tbaa !29
  br label %109

103:                                              ; preds = %96
  %104 = xor i64 %45, 1
  %105 = inttoptr i64 %104 to ptr
  store ptr %105, ptr %1, align 8, !tbaa !27
  %.val92 = load ptr, ptr %15, align 8, !tbaa !30
  %106 = ptrtoint ptr %.val92 to i64
  %107 = xor i64 %106, 1
  %108 = inttoptr i64 %107 to ptr
  store ptr %108, ptr %2, align 8, !tbaa !27
  %.val91 = load ptr, ptr %12, align 8, !tbaa !30
  br label %109

109:                                              ; preds = %91, %89, %103, %97, %83, %77, %63, %57, %34, %25
  %.0 = phi ptr [ %.val102, %25 ], [ %.val101, %34 ], [ %.val86, %57 ], [ %.val85, %63 ], [ %.val95, %77 ], [ %.val82, %83 ], [ %.val80, %97 ], [ %.val91, %103 ], [ null, %89 ], [ null, %91 ]
  ret ptr %.0
}